target datalayout = "e-m:e-p270:32:32-p271:32:32-p272:64:64-i64:64-i128:128-f80:128-n8:16:32:64-S128"
target triple = "x86_64-pc-linux-gnu"

%struct.diff_options = type { ptr, ptr, i32, i32, ptr, i32, ptr, i64, i64, ptr, ptr, ptr, ptr, %struct.diff_flags, i32, i32, i32, i32, i32, i32, i32, i32, i32, i32, i32, i32, i32, i32, i32, i32, i32, i32, i32, i32, i32, i32, ptr, i32, ptr, i32, i32, ptr, i64, i64, i32, i32, i32, i32, ptr, i32, i32, ptr, i32, i32, ptr, ptr, i32, [3 x i8], %struct.pathspec, ptr, ptr, ptr, ptr, ptr, ptr, ptr, ptr, i32, ptr, i32, i32, ptr, ptr, i32 }
%struct.diff_flags = type { i32, i32, i32, i32, i32, i32, i32, i32, i32, i32, i32, i32, i32, i32, i32, i32, i32, i32, i32, i32, i32, i32, i32, i32, i32, i32, i32, i32, i32, i32, i32, i32, i32, i32, i32 }
%struct.pathspec = type { i32, i8, i32, i32, ptr }

@default_diffopt = internal global ptr null, align 8

; Function Attrs: nounwind uwtable
define dso_local void @graph_setup_line_prefix(ptr noundef %0) #0 {
  %2 = alloca ptr, align 8
  store ptr %0, ptr %2, align 8, !tbaa !11
  %3 = load ptr, ptr %2, align 8, !tbaa !11
  store ptr %3, ptr @default_diffopt, align 8, !tbaa !11
  %4 = load ptr, ptr %2, align 8, !tbaa !11
  %5 = icmp ne ptr %4, null
  br i1 %5, label %6, label %14

6:                                                ; preds = %1
  %7 = load ptr, ptr %2, align 8, !tbaa !11
  %8 = getelementptr inbounds nuw %struct.diff_options, ptr %7, i32 0, i32 65
  %9 = load ptr, ptr %8, align 8, !tbaa !13
  %10 = icmp ne ptr %9, null
  br i1 %10, label %14, label %11

11:                                               ; preds = %6
  %12 = load ptr, ptr %2, align 8, !tbaa !11
  %13 = getelementptr inbounds nuw %struct.diff_options, ptr %12, i32 0, i32 65
  store ptr @diff_output_prefix_callback, ptr %13, align 8, !tbaa !13
  br label %14

14:                                               ; preds = %11, %6, %1
  ret void
}