; Function Attrs: mustprogress nofree norecurse nosync nounwind willreturn memory(write, argmem: readwrite, inaccessiblemem: none) uwtable
define dso_local void @graph_setup_line_prefix(ptr noundef %0) local_unnamed_addr #1 {
  store ptr %0, ptr @default_diffopt, align 8, !tbaa !11
  %.not = icmp eq ptr %0, null
  br i1 %.not, label %6, label %2

2:                                                ; preds = %1
  %3 = getelementptr inbounds nuw i8, ptr %0, i64 528
  %4 = load ptr, ptr %3, align 8, !tbaa !13
  %.not4 = icmp eq ptr %4, null
  br i1 %.not4, label %5, label %6

5:                                                ; preds = %2
  store ptr @diff_output_prefix_callback, ptr %3, align 8, !tbaa !13
  br label %6

6:                                                ; preds = %5, %2, %1
  ret void
}